; Function Attrs: nounwind uwtable
define ptr @l_Array_foldlMUnsafe_fold___at_Lean_Compiler_LCNF_Decl_reduceArity___spec__6___at_Lean_Compiler_LCNF_Decl_reduceArity___spec__7(ptr noundef %0, ptr noundef readonly captures(none) %1, i64 noundef %2, i64 noundef %3, ptr noundef %4) local_unnamed_addr #0 {
  %.not49 = icmp eq i64 %2, %3
  br i1 %.not49, label %._crit_edge, label %.lr.ph

.lr.ph:                                           ; preds = %5
  %6 = getelementptr inbounds nuw i8, ptr %1, i64 24
  br label %7

7:                                                ; preds = %.lr.ph, %lean_dec.exit
  %.02451 = phi i64 [ %2, %.lr.ph ], [ %38, %lean_dec.exit ]
  %.02650 = phi ptr [ %4, %.lr.ph ], [ %.228, %lean_dec.exit ]
  %8 = getelementptr inbounds nuw [0 x ptr], ptr %6, i64 0, i64 %.02451
  %9 = load ptr, ptr %8, align 8, !tbaa !4
  %10 = ptrtoint ptr %9 to i64
  %11 = and i64 %10, 1
  %.not.i35 = icmp eq i64 %11, 0
  br i1 %.not.i35, label %12, label %lean_array_uget.exit

12:                                               ; preds = %7
  %.val.i.i = load i32, ptr %9, align 4, !tbaa !8
  %13 = icmp sgt i32 %.val.i.i, 0
  br i1 %13, label %14, label %16, !prof !11

14:                                               ; preds = %12
  %15 = add nuw i32 %.val.i.i, 1
  store i32 %15, ptr %9, align 4, !tbaa !8
  br label %lean_array_uget.exit

16:                                               ; preds = %12
  %.not.i.i = icmp eq i32 %.val.i.i, 0
  br i1 %.not.i.i, label %lean_array_uget.exit, label %17

17:                                               ; preds = %16
  tail call void @lean_inc_ref_cold(ptr noundef nonnull %9) #4
  br label %lean_array_uget.exit

lean_array_uget.exit:                             ; preds = %7, %14, %16, %17
  %18 = getelementptr inbounds nuw i8, ptr %9, i64 8
  %19 = load ptr, ptr %18, align 8, !tbaa !4
  %20 = ptrtoint ptr %19 to i64
  %21 = and i64 %20, 1
  %.not47 = icmp eq i64 %21, 0
  br i1 %.not47, label %22, label %lean_inc.exit

22:                                               ; preds = %lean_array_uget.exit
  %.val.i = load i32, ptr %19, align 4, !tbaa !8
  %23 = icmp sgt i32 %.val.i, 0
  br i1 %23, label %24, label %26, !prof !11

24:                                               ; preds = %22
  %25 = add nuw i32 %.val.i, 1
  store i32 %25, ptr %19, align 4, !tbaa !8
  br label %29

26:                                               ; preds = %22
  %.not.i36 = icmp eq i32 %.val.i, 0
  br i1 %.not.i36, label %29, label %27

27:                                               ; preds = %26
  tail call void @lean_inc_ref_cold(ptr noundef nonnull %19) #4
  br label %29

lean_inc.exit:                                    ; preds = %lean_array_uget.exit
  %28 = tail call ptr @l_Lean_RBNode_findCore___at___private_Lean_Meta_FunInfo_0__Lean_Meta_getFunInfoAux___spec__2(ptr noundef %0, ptr noundef %19) #4
  br label %lean_dec.exit30

29:                                               ; preds = %27, %26, %24
  %30 = tail call ptr @l_Lean_RBNode_findCore___at___private_Lean_Meta_FunInfo_0__Lean_Meta_getFunInfoAux___spec__2(ptr noundef %0, ptr noundef nonnull %19) #4
  %31 = load i32, ptr %19, align 4, !tbaa !8
  %32 = icmp sgt i32 %31, 1
  br i1 %32, label %33, label %35, !prof !11

33:                                               ; preds = %29
  %34 = add nsw i32 %31, -1
  store i32 %34, ptr %19, align 4, !tbaa !8
  br label %lean_dec.exit30

35:                                               ; preds = %29
  %.not.i = icmp eq i32 %31, 0
  br i1 %.not.i, label %lean_dec.exit30, label %36

36:                                               ; preds = %35
  tail call void @lean_dec_ref_cold(ptr noundef nonnull %19) #4
  br label %lean_dec.exit30

lean_dec.exit30:                                  ; preds = %36, %35, %33, %lean_inc.exit
  %37 = phi ptr [ %28, %lean_inc.exit ], [ %30, %33 ], [ %30, %35 ], [ %30, %36 ]
  %38 = add i64 %.02451, 1
  %39 = ptrtoint ptr %37 to i64
  %40 = and i64 %39, 1
  %.not.i37 = icmp eq i64 %40, 0
  br i1 %.not.i37, label %lean_obj_tag.exit.thread, label %lean_obj_tag.exit

lean_obj_tag.exit:                                ; preds = %lean_dec.exit30
  %41 = and i64 %39, 8589934590
  %42 = icmp eq i64 %41, 0
  br i1 %42, label %45, label %lean_dec.exit29

lean_obj_tag.exit.thread:                         ; preds = %lean_dec.exit30
  %43 = getelementptr i8, ptr %37, i64 4
  %.val.i38 = load i32, ptr %43, align 4
  %44 = icmp ult i32 %.val.i38, 16777216
  br i1 %44, label %45, label %.thread

45:                                               ; preds = %lean_obj_tag.exit.thread, %lean_obj_tag.exit
  %46 = tail call ptr @lean_array_push(ptr noundef %.02650, ptr noundef nonnull %9) #4
  br label %lean_dec.exit

.thread:                                          ; preds = %lean_obj_tag.exit.thread
  %47 = load i32, ptr %37, align 4, !tbaa !8
  %48 = icmp sgt i32 %47, 1
  br i1 %48, label %49, label %51, !prof !11

49:                                               ; preds = %.thread
  %50 = add nsw i32 %47, -1
  store i32 %50, ptr %37, align 4, !tbaa !8
  br label %lean_dec.exit29

51:                                               ; preds = %.thread
  %.not.i31 = icmp eq i32 %47, 0
  br i1 %.not.i31, label %lean_dec.exit29, label %52

52:                                               ; preds = %51
  tail call void @lean_dec_ref_cold(ptr noundef nonnull %37) #4
  br label %lean_dec.exit29

lean_dec.exit29:                                  ; preds = %lean_obj_tag.exit, %52, %51, %49
  br i1 %.not.i35, label %53, label %lean_dec.exit

53:                                               ; preds = %lean_dec.exit29
  %54 = load i32, ptr %9, align 4, !tbaa !8
  %55 = icmp sgt i32 %54, 1
  br i1 %55, label %56, label %58, !prof !11

56:                                               ; preds = %53
  %57 = add nsw i32 %54, -1
  store i32 %57, ptr %9, align 4, !tbaa !8
  br label %lean_dec.exit

58:                                               ; preds = %53
  %.not.i33 = icmp eq i32 %54, 0
  br i1 %.not.i33, label %lean_dec.exit, label %59

59:                                               ; preds = %58
  tail call void @lean_dec_ref_cold(ptr noundef nonnull %9) #4
  br label %lean_dec.exit

lean_dec.exit:                                    ; preds = %lean_dec.exit29, %56, %58, %59, %45
  %.228 = phi ptr [ %46, %45 ], [ %.02650, %59 ], [ %.02650, %58 ], [ %.02650, %56 ], [ %.02650, %lean_dec.exit29 ]
  %.not = icmp eq i64 %38, %3
  br i1 %.not, label %._crit_edge, label %7

._crit_edge:                                      ; preds = %lean_dec.exit, %5
  %.026.lcssa = phi ptr [ %4, %5 ], [ %.228, %lean_dec.exit ]
  ret ptr %.026.lcssa
}